; Function Attrs: mustprogress uwtable
define void @_ZNK7openvdb5v11_06points12AttributeSet5writeERSob(ptr nocapture noundef nonnull readonly align 8 dereferenceable(40) %this, ptr noundef nonnull align 8 dereferenceable(8) %os, i1 noundef zeroext %outputTransient) local_unnamed_addr #3 align 2 {
entry:
  tail call void @_ZNK7openvdb5v11_06points12AttributeSet15writeDescriptorERSob(ptr noundef nonnull align 8 dereferenceable(40) %this, ptr noundef nonnull align 8 dereferenceable(8) %os, i1 noundef zeroext %outputTransient)
  %mAttrs.i.i = getelementptr inbounds i8, ptr %this, i64 16
  %_M_finish.i.i.i = getelementptr inbounds i8, ptr %this, i64 24
  %0 = load ptr, ptr %_M_finish.i.i.i, align 8
  %1 = load ptr, ptr %mAttrs.i.i, align 8
  %cmp8.not.i = icmp eq ptr %0, %1
  br i1 %cmp8.not.i, label %_ZNK7openvdb5v11_06points12AttributeSet13writeMetadataERSobb.exit, label %for.body.i

for.body.i:                                       ; preds = %entry, %for.body.i
  %2 = phi ptr [ %6, %for.body.i ], [ %1, %entry ]
  %i.09.i = phi i64 [ %inc.i, %for.body.i ], [ 0, %entry ]
  %add.ptr.i.i.i = getelementptr inbounds %"class.std::shared_ptr.18", ptr %2, i64 %i.09.i
  %3 = load ptr, ptr %add.ptr.i.i.i, align 8
  %vtable.i = load ptr, ptr %3, align 8
  %vfn.i = getelementptr inbounds i8, ptr %vtable.i, i64 208
  %4 = load ptr, ptr %vfn.i, align 8
  tail call void %4(ptr noundef nonnull align 8 dereferenceable(24) %3, ptr noundef nonnull align 8 dereferenceable(8) %os, i1 noundef zeroext %outputTransient, i1 noundef zeroext false)
  %inc.i = add nuw i64 %i.09.i, 1
  %5 = load ptr, ptr %_M_finish.i.i.i, align 8
  %6 = load ptr, ptr %mAttrs.i.i, align 8
  %sub.ptr.lhs.cast.i.i.i = ptrtoint ptr %5 to i64
  %sub.ptr.rhs.cast.i.i.i = ptrtoint ptr %6 to i64
  %sub.ptr.sub.i.i.i = sub i64 %sub.ptr.lhs.cast.i.i.i, %sub.ptr.rhs.cast.i.i.i
  %sub.ptr.div.i.i.i = ashr exact i64 %sub.ptr.sub.i.i.i, 4
  %cmp.i = icmp ult i64 %inc.i, %sub.ptr.div.i.i.i
  br i1 %cmp.i, label %for.body.i, label %_ZNK7openvdb5v11_06points12AttributeSet13writeMetadataERSobb.exit, !llvm.loop !46

_ZNK7openvdb5v11_06points12AttributeSet13writeMetadataERSobb.exit: ; preds = %for.body.i, %entry
  tail call void @_ZNK7openvdb5v11_06points12AttributeSet15writeAttributesERSob(ptr noundef nonnull align 8 dereferenceable(40) %this, ptr noundef nonnull align 8 dereferenceable(8) %os, i1 noundef zeroext %outputTransient)
  ret void
}